; Function Attrs: nounwind uwtable
define void @Acec_TreeFindTreesTest(ptr noundef %0) local_unnamed_addr #0 {
  %2 = alloca %struct.timespec, align 8
  %3 = alloca %struct.timespec, align 8
  %4 = alloca %struct.timespec, align 8
  %5 = alloca %struct.timespec, align 8
  call void @llvm.lifetime.start.p0(i64 16, ptr nonnull %5)
  %6 = call i32 @clock_gettime(i32 noundef 1, ptr noundef nonnull %5) #21
  %7 = icmp slt i32 %6, 0
  br i1 %7, label %Abc_Clock.exit, label %8

8:                                                ; preds = %1
  %9 = load i64, ptr %5, align 8
  %.neg26 = mul i64 %9, -1000000
  %10 = getelementptr inbounds nuw i8, ptr %5, i64 8
  %11 = load i64, ptr %10, align 8
  %.neg = sdiv i64 %11, -1000
  %.neg27 = add i64 %.neg, %.neg26
  br label %Abc_Clock.exit

Abc_Clock.exit:                                   ; preds = %1, %8
  %.0.i.neg = phi i64 [ %.neg27, %8 ], [ 1, %1 ]
  call void @llvm.lifetime.end.p0(i64 16, ptr nonnull %5)
  %12 = call ptr @Ree_ManComputeCuts(ptr noundef %0, ptr noundef null, i32 noundef 1) #21
  %13 = call i32 @Ree_ManCountFadds(ptr noundef %12) #21
  %14 = getelementptr i8, ptr %12, i64 4
  %.val15 = load i32, ptr %14, align 4
  %15 = sdiv i32 %.val15, 6
  %16 = sub nsw i32 %15, %13
  %17 = call i32 (ptr, ...) @printf(ptr noundef nonnull dereferenceable(1) @.str.12, i32 noundef %15, i32 noundef %13, i32 noundef %16)
  call void @llvm.lifetime.start.p0(i64 16, ptr nonnull %4)
  %18 = call i32 @clock_gettime(i32 noundef 1, ptr noundef nonnull %4) #21
  %19 = icmp slt i32 %18, 0
  br i1 %19, label %Abc_Clock.exit17, label %20

20:                                               ; preds = %Abc_Clock.exit
  %21 = load i64, ptr %4, align 8
  %22 = mul nsw i64 %21, 1000000
  %23 = getelementptr inbounds nuw i8, ptr %4, i64 8
  %24 = load i64, ptr %23, align 8
  %25 = sdiv i64 %24, 1000
  %26 = add nsw i64 %25, %22
  br label %Abc_Clock.exit17

Abc_Clock.exit17:                                 ; preds = %Abc_Clock.exit, %20
  %.0.i16 = phi i64 [ %26, %20 ], [ -1, %Abc_Clock.exit ]
  call void @llvm.lifetime.end.p0(i64 16, ptr nonnull %4)
  %27 = add i64 %.0.i16, %.0.i.neg
  call void (i32, ptr, ...) @Abc_Print(i32 poison, ptr noundef nonnull @.str.24, ptr noundef nonnull @.str.13)
  %28 = sitofp i64 %27 to double
  %29 = fdiv double %28, 1.000000e+06
  call void (i32, ptr, ...) @Abc_Print(i32 poison, ptr noundef nonnull @.str.25, double noundef %29)
  call void @llvm.lifetime.start.p0(i64 16, ptr nonnull %3)
  %30 = call i32 @clock_gettime(i32 noundef 1, ptr noundef nonnull %3) #21
  %31 = icmp slt i32 %30, 0
  br i1 %31, label %Abc_Clock.exit19, label %32

32:                                               ; preds = %Abc_Clock.exit17
  %33 = load i64, ptr %3, align 8
  %.neg29 = mul i64 %33, -1000000
  %34 = getelementptr inbounds nuw i8, ptr %3, i64 8
  %35 = load i64, ptr %34, align 8
  %.neg28 = sdiv i64 %35, -1000
  %.neg30 = add i64 %.neg28, %.neg29
  br label %Abc_Clock.exit19

Abc_Clock.exit19:                                 ; preds = %Abc_Clock.exit17, %32
  %.0.i18.neg = phi i64 [ %.neg30, %32 ], [ 1, %Abc_Clock.exit17 ]
  call void @llvm.lifetime.end.p0(i64 16, ptr nonnull %3)
  %36 = call ptr @Acec_TreeFindTrees(ptr noundef %0, ptr noundef nonnull %12, ptr noundef null, i32 noundef 0, i32 noundef 0)
  %37 = getelementptr i8, ptr %36, i64 4
  %.val = load i32, ptr %37, align 4
  %38 = icmp sgt i32 %.val, 0
  br i1 %38, label %.lr.ph.i, label %Vec_WecSizeSize.exit

.lr.ph.i:                                         ; preds = %Abc_Clock.exit19
  %39 = getelementptr i8, ptr %36, i64 8
  %.val8.i = load ptr, ptr %39, align 8
  %wide.trip.count.i = zext nneg i32 %.val to i64
  br label %40

40:                                               ; preds = %40, %.lr.ph.i
  %indvars.iv.i = phi i64 [ 0, %.lr.ph.i ], [ %indvars.iv.next.i, %40 ]
  %.011.i = phi i32 [ 0, %.lr.ph.i ], [ %42, %40 ]
  %41 = getelementptr %struct.Vec_Int_t_, ptr %.val8.i, i64 %indvars.iv.i, i32 1
  %.val9.i = load i32, ptr %41, align 4
  %42 = add nsw i32 %.val9.i, %.011.i
  %indvars.iv.next.i = add nuw nsw i64 %indvars.iv.i, 1
  %exitcond.not.i = icmp eq i64 %indvars.iv.next.i, %wide.trip.count.i
  br i1 %exitcond.not.i, label %Vec_WecSizeSize.exit.loopexit, label %40, !llvm.loop !43

Vec_WecSizeSize.exit.loopexit:                    ; preds = %40
  %43 = sdiv i32 %42, 2
  br label %Vec_WecSizeSize.exit

Vec_WecSizeSize.exit:                             ; preds = %Vec_WecSizeSize.exit.loopexit, %Abc_Clock.exit19
  %.0.lcssa.i = phi i32 [ 0, %Abc_Clock.exit19 ], [ %43, %Vec_WecSizeSize.exit.loopexit ]
  %44 = call i32 (ptr, ...) @printf(ptr noundef nonnull dereferenceable(1) @.str.14, i32 noundef %.val, i32 noundef %.0.lcssa.i)
  call void @llvm.lifetime.start.p0(i64 16, ptr nonnull %2)
  %45 = call i32 @clock_gettime(i32 noundef 1, ptr noundef nonnull %2) #21
  %46 = icmp slt i32 %45, 0
  br i1 %46, label %Abc_Clock.exit21, label %47

47:                                               ; preds = %Vec_WecSizeSize.exit
  %48 = load i64, ptr %2, align 8
  %49 = mul nsw i64 %48, 1000000
  %50 = getelementptr inbounds nuw i8, ptr %2, i64 8
  %51 = load i64, ptr %50, align 8
  %52 = sdiv i64 %51, 1000
  %53 = add nsw i64 %52, %49
  br label %Abc_Clock.exit21

Abc_Clock.exit21:                                 ; preds = %Vec_WecSizeSize.exit, %47
  %.0.i20 = phi i64 [ %53, %47 ], [ -1, %Vec_WecSizeSize.exit ]
  call void @llvm.lifetime.end.p0(i64 16, ptr nonnull %2)
  %54 = add i64 %.0.i20, %.0.i18.neg
  call void (i32, ptr, ...) @Abc_Print(i32 poison, ptr noundef nonnull @.str.24, ptr noundef nonnull @.str.13)
  %55 = sitofp i64 %54 to double
  %56 = fdiv double %55, 1.000000e+06
  call void (i32, ptr, ...) @Abc_Print(i32 poison, ptr noundef nonnull @.str.25, double noundef %56)
  br i1 %38, label %.lr.ph23.i, label %Vec_WecPrint.exit

.lr.ph23.i:                                       ; preds = %Abc_Clock.exit21
  %57 = getelementptr i8, ptr %36, i64 8
  %.val16.i = load ptr, ptr %57, align 8
  %58 = zext nneg i32 %.val to i64
  br label %59

59:                                               ; preds = %.critedge2.i, %.lr.ph23.i
  %indvars.iv25.i = phi i64 [ 0, %.lr.ph23.i ], [ %indvars.iv.next26.i, %.critedge2.i ]
  %60 = getelementptr inbounds nuw %struct.Vec_Int_t_, ptr %.val16.i, i64 %indvars.iv25.i
  %61 = trunc nuw nsw i64 %indvars.iv25.i to i32
  %62 = call i32 (ptr, ...) @printf(ptr noundef nonnull dereferenceable(1) @.str.28, i32 noundef %61)
  %63 = getelementptr i8, ptr %60, i64 4
  %.val1719.i = load i32, ptr %63, align 4
  %64 = icmp sgt i32 %.val1719.i, 0
  br i1 %64, label %.lr.ph.i23, label %.critedge2.i

.lr.ph.i23:                                       ; preds = %59
  %65 = getelementptr i8, ptr %60, i64 8
  br label %66

66:                                               ; preds = %66, %.lr.ph.i23
  %indvars.iv.i24 = phi i64 [ 0, %.lr.ph.i23 ], [ %indvars.iv.next.i25, %66 ]
  %.val18.i = load ptr, ptr %65, align 8
  %67 = getelementptr inbounds nuw i32, ptr %.val18.i, i64 %indvars.iv.i24
  %68 = load i32, ptr %67, align 4
  %69 = call i32 (ptr, ...) @printf(ptr noundef nonnull dereferenceable(1) @.str.29, i32 noundef %68)
  %indvars.iv.next.i25 = add nuw nsw i64 %indvars.iv.i24, 1
  %.val17.i = load i32, ptr %63, align 4
  %70 = sext i32 %.val17.i to i64
  %71 = icmp slt i64 %indvars.iv.next.i25, %70
  br i1 %71, label %66, label %.critedge2.i, !llvm.loop !44

.critedge2.i:                                     ; preds = %66, %59
  %puts.i = call i32 @puts(ptr nonnull dereferenceable(1) @str.6)
  %indvars.iv.next26.i = add nuw nsw i64 %indvars.iv25.i, 1
  %exitcond.not = icmp eq i64 %indvars.iv.next26.i, %58
  br i1 %exitcond.not, label %Vec_WecPrint.exit, label %59, !llvm.loop !45

Vec_WecPrint.exit:                                ; preds = %.critedge2.i, %Abc_Clock.exit21
  %72 = load i32, ptr %36, align 8
  %73 = icmp sgt i32 %72, 0
  %74 = getelementptr inbounds nuw i8, ptr %36, i64 8
  %75 = load ptr, ptr %74, align 8
  br i1 %73, label %.lr.ph.i.i, label %._crit_edge.i.i

.lr.ph.i.i:                                       ; preds = %Vec_WecPrint.exit
  %76 = zext nneg i32 %72 to i64
  br label %77

77:                                               ; preds = %81, %.lr.ph.i.i
  %indvars.iv.i.i = phi i64 [ 0, %.lr.ph.i.i ], [ %indvars.iv.next.i.i, %81 ]
  %78 = getelementptr inbounds nuw %struct.Vec_Int_t_, ptr %75, i64 %indvars.iv.i.i, i32 2
  %79 = load ptr, ptr %78, align 8
  %.not15.i.i = icmp eq ptr %79, null
  br i1 %.not15.i.i, label %81, label %80

80:                                               ; preds = %77
  call void @free(ptr noundef nonnull %79) #21
  store ptr null, ptr %78, align 8
  br label %81

81:                                               ; preds = %80, %77
  %indvars.iv.next.i.i = add nuw nsw i64 %indvars.iv.i.i, 1
  %exitcond31.not = icmp eq i64 %indvars.iv.next.i.i, %76
  br i1 %exitcond31.not, label %._crit_edge.i.i.thread, label %77, !llvm.loop !4

._crit_edge.i.i:                                  ; preds = %Vec_WecPrint.exit
  %.not.i.i = icmp eq ptr %75, null
  br i1 %.not.i.i, label %Vec_WecFree.exit, label %._crit_edge.i.i.thread

._crit_edge.i.i.thread:                           ; preds = %81, %._crit_edge.i.i
  call void @free(ptr noundef nonnull %75) #21
  br label %Vec_WecFree.exit

Vec_WecFree.exit:                                 ; preds = %._crit_edge.i.i, %._crit_edge.i.i.thread
  call void @free(ptr noundef nonnull %36) #21
  %82 = getelementptr inbounds nuw i8, ptr %12, i64 8
  %83 = load ptr, ptr %82, align 8
  %.not.i = icmp eq ptr %83, null
  br i1 %.not.i, label %Vec_IntFree.exit, label %84

84:                                               ; preds = %Vec_WecFree.exit
  call void @free(ptr noundef nonnull %83) #21
  br label %Vec_IntFree.exit

Vec_IntFree.exit:                                 ; preds = %Vec_WecFree.exit, %84
  call void @free(ptr noundef nonnull %12) #21
  ret void
}